target datalayout = "e-m:e-p270:32:32-p271:32:32-p272:64:64-i64:64-i128:128-f80:128-n8:16:32:64-S128"
target triple = "x86_64-pc-linux-gnu"

%struct.evp_pkey_ctx_st = type { i32, ptr, ptr, ptr, ptr, %union.anon, %struct.anon.5, ptr, ptr, ptr, i32, i32, ptr, ptr, ptr, ptr, ptr, i8, ptr }
%union.anon = type { %struct.anon.1 }
%struct.anon.1 = type { ptr, ptr }
%struct.anon.5 = type { ptr, ptr, i64, i8 }

@.str.11 = private unnamed_addr constant [32 x i8] c"../openssl/crypto/dh/dh_ameth.c\00", align 1
@__func__.dh_pkey_import_from_type = private unnamed_addr constant [25 x i8] c"dh_pkey_import_from_type\00", align 1

; Function Attrs: nounwind uwtable
define internal i32 @dh_pkey_import_from_type(ptr noundef %0, ptr noundef %1, i32 noundef %2) #0 {
  %4 = alloca i32, align 4
  %5 = alloca ptr, align 8
  %6 = alloca ptr, align 8
  %7 = alloca i32, align 4
  %8 = alloca ptr, align 8
  %9 = alloca ptr, align 8
  %10 = alloca ptr, align 8
  %11 = alloca i32, align 4
  store ptr %0, ptr %5, align 8, !tbaa !66
  store ptr %1, ptr %6, align 8, !tbaa !40
  store i32 %2, ptr %7, align 4, !tbaa !8
  call void @llvm.lifetime.start.p0(i64 8, ptr %8) #4
  %12 = load ptr, ptr %6, align 8, !tbaa !40
  store ptr %12, ptr %8, align 8, !tbaa !70
  call void @llvm.lifetime.start.p0(i64 8, ptr %9) #4
  %13 = load ptr, ptr %8, align 8, !tbaa !70
  %14 = call ptr @EVP_PKEY_CTX_get0_pkey(ptr noundef %13)
  store ptr %14, ptr %9, align 8, !tbaa !32
  call void @llvm.lifetime.start.p0(i64 8, ptr %10) #4
  %15 = load ptr, ptr %8, align 8, !tbaa !70
  %16 = getelementptr inbounds nuw %struct.evp_pkey_ctx_st, ptr %15, i32 0, i32 1
  %17 = load ptr, ptr %16, align 8, !tbaa !72
  %18 = call ptr @ossl_dh_new_ex(ptr noundef %17)
  store ptr %18, ptr %10, align 8, !tbaa !3
  %19 = load ptr, ptr %10, align 8, !tbaa !3
  %20 = icmp eq ptr %19, null
  br i1 %20, label %21, label %22

21:                                               ; preds = %3
  call void @ERR_new()
  call void @ERR_set_debug(ptr noundef @.str.11, i32 noundef 517, ptr noundef @__func__.dh_pkey_import_from_type)
  call void (i32, i32, ptr, ...) @ERR_set_error(i32 noundef 5, i32 noundef 524293, ptr noundef null)
  store i32 0, ptr %4, align 4
  store i32 1, ptr %11, align 4
  br label %46

22:                                               ; preds = %3
  %23 = load ptr, ptr %10, align 8, !tbaa !3
  call void @DH_clear_flags(ptr noundef %23, i32 noundef 61440)
  %24 = load ptr, ptr %10, align 8, !tbaa !3
  %25 = load i32, ptr %7, align 4, !tbaa !8
  %26 = icmp eq i32 %25, 28
  %27 = select i1 %26, i32 0, i32 4096
  call void @DH_set_flags(ptr noundef %24, i32 noundef %27)
  %28 = load ptr, ptr %10, align 8, !tbaa !3
  %29 = load ptr, ptr %5, align 8, !tbaa !66
  %30 = call i32 @ossl_dh_params_fromdata(ptr noundef %28, ptr noundef %29)
  %31 = icmp ne i32 %30, 0
  br i1 %31, label %32, label %43

32:                                               ; preds = %22
  %33 = load ptr, ptr %10, align 8, !tbaa !3
  %34 = load ptr, ptr %5, align 8, !tbaa !66
  %35 = call i32 @ossl_dh_key_fromdata(ptr noundef %33, ptr noundef %34, i32 noundef 1)
  %36 = icmp ne i32 %35, 0
  br i1 %36, label %37, label %43

37:                                               ; preds = %32
  %38 = load ptr, ptr %9, align 8, !tbaa !32
  %39 = load i32, ptr %7, align 4, !tbaa !8
  %40 = load ptr, ptr %10, align 8, !tbaa !3
  %41 = call i32 @EVP_PKEY_assign(ptr noundef %38, i32 noundef %39, ptr noundef %40)
  %42 = icmp ne i32 %41, 0
  br i1 %42, label %45, label %43

43:                                               ; preds = %37, %32, %22
  %44 = load ptr, ptr %10, align 8, !tbaa !3
  call void @DH_free(ptr noundef %44)
  store i32 0, ptr %4, align 4
  store i32 1, ptr %11, align 4
  br label %46

45:                                               ; preds = %37
  store i32 1, ptr %4, align 4
  store i32 1, ptr %11, align 4
  br label %46

46:                                               ; preds = %45, %43, %21
  call void @llvm.lifetime.end.p0(i64 8, ptr %10) #4
  call void @llvm.lifetime.end.p0(i64 8, ptr %9) #4
  call void @llvm.lifetime.end.p0(i64 8, ptr %8) #4
  %47 = load i32, ptr %4, align 4
  ret i32 %47
}