; Function Attrs: nounwind uwtable
define internal fastcc range(i32 0, 2) i32 @dh_pkey_import_from_type(ptr noundef %0, ptr noundef %1, i32 noundef range(i32 28, 921) %2) unnamed_addr #0 {
  %4 = tail call ptr @EVP_PKEY_CTX_get0_pkey(ptr noundef %1) #5
  %5 = getelementptr inbounds nuw i8, ptr %1, i64 8
  %6 = load ptr, ptr %5, align 8, !tbaa !48
  %7 = tail call ptr @ossl_dh_new_ex(ptr noundef %6) #5
  %8 = icmp eq ptr %7, null
  br i1 %8, label %9, label %10

9:                                                ; preds = %3
  tail call void @ERR_new() #5
  tail call void @ERR_set_debug(ptr noundef nonnull @.str.11, i32 noundef 517, ptr noundef nonnull @__func__.dh_pkey_import_from_type) #5
  tail call void (i32, i32, ptr, ...) @ERR_set_error(i32 noundef 5, i32 noundef 524293, ptr noundef null) #5
  br label %19

10:                                               ; preds = %3
  tail call void @DH_clear_flags(ptr noundef nonnull %7, i32 noundef 61440) #5
  %11 = icmp eq i32 %2, 28
  %12 = select i1 %11, i32 0, i32 4096
  tail call void @DH_set_flags(ptr noundef nonnull %7, i32 noundef %12) #5
  %13 = tail call i32 @ossl_dh_params_fromdata(ptr noundef nonnull %7, ptr noundef %0) #5
  %.not = icmp eq i32 %13, 0
  br i1 %.not, label %18, label %14

14:                                               ; preds = %10
  %15 = tail call i32 @ossl_dh_key_fromdata(ptr noundef nonnull %7, ptr noundef %0, i32 noundef 1) #5
  %.not16 = icmp eq i32 %15, 0
  br i1 %.not16, label %18, label %16

16:                                               ; preds = %14
  %17 = tail call i32 @EVP_PKEY_assign(ptr noundef %4, i32 noundef %2, ptr noundef nonnull %7) #5
  %.not17 = icmp eq i32 %17, 0
  br i1 %.not17, label %18, label %19

18:                                               ; preds = %16, %14, %10
  tail call void @DH_free(ptr noundef nonnull %7) #5
  br label %19

19:                                               ; preds = %16, %18, %9
  %.0 = phi i32 [ 0, %9 ], [ 0, %18 ], [ 1, %16 ]
  ret i32 %.0
}